; Function Attrs: mustprogress uwtable
define hidden void @_ZNK7datalog21check_relation_plugin6groundERKNS_13relation_baseE(ptr dead_on_unwind noalias writable sret(%class.obj_ref) align 8 %0, ptr noundef nonnull readonly align 8 captures(none) dereferenceable(56) %1, ptr noundef nonnull align 8 dereferenceable(28) %2) local_unnamed_addr #3 align 2 personality ptr @__gxx_personality_v0 {
  %4 = alloca %class.obj_ref, align 8
  call void @llvm.lifetime.start.p0(i64 16, ptr nonnull %4) #24
  %5 = getelementptr inbounds nuw i8, ptr %1, i64 40
  %6 = load ptr, ptr %5, align 8, !tbaa !43
  store ptr null, ptr %4, align 8, !tbaa !35
  %7 = getelementptr inbounds nuw i8, ptr %4, i64 8
  store ptr %6, ptr %7, align 8, !tbaa !27
  %8 = load ptr, ptr %2, align 8, !tbaa !3
  %9 = getelementptr inbounds nuw i8, ptr %8, i64 144
  %10 = load ptr, ptr %9, align 8
  invoke void %10(ptr noundef nonnull align 8 dereferenceable(28) %2, ptr noundef nonnull align 8 dereferenceable(16) %4)
          to label %11 unwind label %25

11:                                               ; preds = %3
  %12 = load ptr, ptr %4, align 8, !tbaa !35
  invoke void @_ZNK7datalog21check_relation_plugin6groundERKNS_13relation_baseEP4expr(ptr dead_on_unwind writable sret(%class.obj_ref) align 8 %0, ptr noundef nonnull align 8 dereferenceable(56) %1, ptr noundef nonnull align 8 dereferenceable(28) %2, ptr noundef %12)
          to label %13 unwind label %25

13:                                               ; preds = %11
  %14 = load ptr, ptr %4, align 8, !tbaa !35
  %.not.i.i = icmp eq ptr %14, null
  br i1 %.not.i.i, label %_ZN7obj_refI4expr11ast_managerED2Ev.exit, label %15

15:                                               ; preds = %13
  %16 = load ptr, ptr %7, align 8, !tbaa !36
  %17 = getelementptr inbounds nuw i8, ptr %14, i64 8
  %18 = load i32, ptr %17, align 4, !tbaa !37
  %19 = add i32 %18, -1
  store i32 %19, ptr %17, align 4, !tbaa !37
  %20 = icmp eq i32 %19, 0
  br i1 %20, label %21, label %_ZN7obj_refI4expr11ast_managerED2Ev.exit

21:                                               ; preds = %15
  invoke void @_ZN11ast_manager11delete_nodeEP3ast(ptr noundef nonnull align 8 dereferenceable(976) %16, ptr noundef nonnull %14)
          to label %_ZN7obj_refI4expr11ast_managerED2Ev.exit unwind label %22

22:                                               ; preds = %21
  %23 = landingpad { ptr, i32 }
          catch ptr null
  %24 = extractvalue { ptr, i32 } %23, 0
  call void @__clang_call_terminate(ptr %24) #25
  unreachable

_ZN7obj_refI4expr11ast_managerED2Ev.exit:         ; preds = %13, %15, %21
  call void @llvm.lifetime.end.p0(i64 16, ptr nonnull %4) #24
  ret void

25:                                               ; preds = %11, %3
  %26 = landingpad { ptr, i32 }
          cleanup
  call void @_ZN7obj_refI4expr11ast_managerED2Ev(ptr noundef nonnull align 8 dereferenceable(16) %4) #24
  call void @llvm.lifetime.end.p0(i64 16, ptr nonnull %4) #24
  resume { ptr, i32 } %26
}